; Function Attrs: inlinehint mustprogress nounwind willreturn uwtable
define internal fastcc void @Dec_GraphFree(ptr noundef captures(none) %0) unnamed_addr #4 {
  %2 = getelementptr inbounds nuw i8, ptr %0, i64 16
  %3 = load ptr, ptr %2, align 8, !tbaa !100
  %.not = icmp eq ptr %3, null
  br i1 %.not, label %5, label %4

4:                                                ; preds = %1
  tail call void @free(ptr noundef nonnull %3) #22
  br label %5

5:                                                ; preds = %1, %4
  tail call void @free(ptr noundef nonnull %0) #22
  ret void
}